target datalayout = "e-m:e-p270:32:32-p271:32:32-p272:64:64-i64:64-i128:128-f80:128-n8:16:32:64-S128"
target triple = "x86_64-pc-linux-gnu"

%struct.Gia_ParSwi_t_ = type { i32, i32, i32, i32, i32, i32, i32 }
%struct.Gia_ManSwi_t_ = type { ptr, ptr, i32, ptr, ptr, ptr, ptr }
%struct.Gia_Man_t_ = type { ptr, ptr, i32, i32, i32, i32, ptr, ptr, i32, i32, i32, ptr, ptr, %struct.Vec_Int_t_, %struct.Vec_Int_t_, i32, i32, i32, %struct.Vec_Int_t_, ptr, ptr, ptr, i32, i32, i32, i32, ptr, ptr, ptr, ptr, ptr, i32, i32, ptr, i32, ptr, ptr, ptr, ptr, ptr, ptr, ptr, ptr, ptr, ptr, ptr, ptr, ptr, ptr, ptr, ptr, ptr, ptr, %struct.Vec_Int_t_, %struct.Vec_Int_t_, ptr, ptr, ptr, ptr, ptr, ptr, ptr, ptr, ptr, ptr, ptr, ptr, ptr, ptr, ptr, ptr, ptr, ptr, ptr, ptr, ptr, i32, float, float, ptr, ptr, i32, ptr, ptr, ptr, ptr, ptr, ptr, ptr, ptr, ptr, ptr, ptr, ptr, ptr, ptr, ptr, i64, i64, ptr, ptr, i32, i32, i32, i32, i32, i32, i32, i32, i32, i32, i32, i32, ptr, ptr, ptr, ptr, ptr, ptr, ptr, ptr, i32, i32, i32, ptr, i32, i32, ptr, ptr, ptr, ptr, ptr, ptr, i32, i32, ptr, %struct.Vec_Int_t_, %struct.Vec_Int_t_, %struct.Vec_Int_t_, ptr, ptr, ptr, i32, i32, i32, i32, ptr, ptr, ptr, ptr, ptr }
%struct.Vec_Int_t_ = type { i32, i32, ptr }

; Function Attrs: inlinehint nounwind uwtable
define internal i32 @Vec_IntSize(ptr noundef %0) #5 {
  %2 = alloca ptr, align 8
  store ptr %0, ptr %2, align 8, !tbaa !56
  %3 = load ptr, ptr %2, align 8, !tbaa !56
  %4 = getelementptr inbounds nuw %struct.Vec_Int_t_, ptr %3, i32 0, i32 1
  %5 = load i32, ptr %4, align 4, !tbaa !76
  ret i32 %5
}

; Function Attrs: inlinehint nounwind uwtable
define internal i32 @Gia_ManObjNum(ptr noundef %0) #5 {
  %2 = alloca ptr, align 8
  store ptr %0, ptr %2, align 8, !tbaa !17
  %3 = load ptr, ptr %2, align 8, !tbaa !17
  %4 = getelementptr inbounds nuw %struct.Gia_Man_t_, ptr %3, i32 0, i32 4
  %5 = load i32, ptr %4, align 8, !tbaa !51
  ret i32 %5
}

; Function Attrs: inlinehint nounwind uwtable
define internal i32 @Gia_ManCoNum(ptr noundef %0) #5 {
  %2 = alloca ptr, align 8
  store ptr %0, ptr %2, align 8, !tbaa !17
  %3 = load ptr, ptr %2, align 8, !tbaa !17
  %4 = getelementptr inbounds nuw %struct.Gia_Man_t_, ptr %3, i32 0, i32 12
  %5 = load ptr, ptr %4, align 8, !tbaa !50
  %6 = call i32 @Vec_IntSize(ptr noundef %5)
  ret i32 %6
}

; Function Attrs: inlinehint nounwind uwtable
define internal i32 @Gia_ManCiNum(ptr noundef %0) #5 {
  %2 = alloca ptr, align 8
  store ptr %0, ptr %2, align 8, !tbaa !17
  %3 = load ptr, ptr %2, align 8, !tbaa !17
  %4 = getelementptr inbounds nuw %struct.Gia_Man_t_, ptr %3, i32 0, i32 11
  %5 = load ptr, ptr %4, align 8, !tbaa !49
  %6 = call i32 @Vec_IntSize(ptr noundef %5)
  ret i32 %6
}

; Function Attrs: nounwind uwtable
define ptr @Gia_ManSwiCreate(ptr noundef %0, ptr noundef %1) #0 {
  %3 = alloca ptr, align 8
  %4 = alloca ptr, align 8
  %5 = alloca ptr, align 8
  store ptr %0, ptr %3, align 8, !tbaa !17
  store ptr %1, ptr %4, align 8, !tbaa !3
  call void @llvm.lifetime.start.p0(i64 8, ptr %5) #11
  %6 = call noalias ptr @malloc(i64 noundef 56) #12
  store ptr %6, ptr %5, align 8, !tbaa !19
  %7 = load ptr, ptr %5, align 8, !tbaa !19
  call void @llvm.memset.p0.i64(ptr align 8 %7, i8 0, i64 56, i1 false)
  %8 = load ptr, ptr %3, align 8, !tbaa !17
  %9 = call ptr @Gia_ManFront(ptr noundef %8)
  %10 = load ptr, ptr %5, align 8, !tbaa !19
  %11 = getelementptr inbounds nuw %struct.Gia_ManSwi_t_, ptr %10, i32 0, i32 0
  store ptr %9, ptr %11, align 8, !tbaa !21
  %12 = load ptr, ptr %4, align 8, !tbaa !3
  %13 = load ptr, ptr %5, align 8, !tbaa !19
  %14 = getelementptr inbounds nuw %struct.Gia_ManSwi_t_, ptr %13, i32 0, i32 1
  store ptr %12, ptr %14, align 8, !tbaa !24
  %15 = load ptr, ptr %4, align 8, !tbaa !3
  %16 = getelementptr inbounds nuw %struct.Gia_ParSwi_t_, ptr %15, i32 0, i32 0
  %17 = load i32, ptr %16, align 4, !tbaa !8
  %18 = load ptr, ptr %5, align 8, !tbaa !19
  %19 = getelementptr inbounds nuw %struct.Gia_ManSwi_t_, ptr %18, i32 0, i32 2
  store i32 %17, ptr %19, align 8, !tbaa !25
  %20 = load ptr, ptr %5, align 8, !tbaa !19
  %21 = getelementptr inbounds nuw %struct.Gia_ManSwi_t_, ptr %20, i32 0, i32 2
  %22 = load i32, ptr %21, align 8, !tbaa !25
  %23 = load ptr, ptr %5, align 8, !tbaa !19
  %24 = getelementptr inbounds nuw %struct.Gia_ManSwi_t_, ptr %23, i32 0, i32 0
  %25 = load ptr, ptr %24, align 8, !tbaa !21
  %26 = getelementptr inbounds nuw %struct.Gia_Man_t_, ptr %25, i32 0, i32 25
  %27 = load i32, ptr %26, align 4, !tbaa !26
  %28 = mul nsw i32 %22, %27
  %29 = sext i32 %28 to i64
  %30 = mul i64 4, %29
  %31 = call noalias ptr @malloc(i64 noundef %30) #12
  %32 = load ptr, ptr %5, align 8, !tbaa !19
  %33 = getelementptr inbounds nuw %struct.Gia_ManSwi_t_, ptr %32, i32 0, i32 3
  store ptr %31, ptr %33, align 8, !tbaa !45
  %34 = load ptr, ptr %5, align 8, !tbaa !19
  %35 = getelementptr inbounds nuw %struct.Gia_ManSwi_t_, ptr %34, i32 0, i32 2
  %36 = load i32, ptr %35, align 8, !tbaa !25
  %37 = load ptr, ptr %5, align 8, !tbaa !19
  %38 = getelementptr inbounds nuw %struct.Gia_ManSwi_t_, ptr %37, i32 0, i32 0
  %39 = load ptr, ptr %38, align 8, !tbaa !21
  %40 = call i32 @Gia_ManCiNum(ptr noundef %39)
  %41 = mul nsw i32 %36, %40
  %42 = sext i32 %41 to i64
  %43 = mul i64 4, %42
  %44 = call noalias ptr @malloc(i64 noundef %43) #12
  %45 = load ptr, ptr %5, align 8, !tbaa !19
  %46 = getelementptr inbounds nuw %struct.Gia_ManSwi_t_, ptr %45, i32 0, i32 4
  store ptr %44, ptr %46, align 8, !tbaa !46
  %47 = load ptr, ptr %5, align 8, !tbaa !19
  %48 = getelementptr inbounds nuw %struct.Gia_ManSwi_t_, ptr %47, i32 0, i32 2
  %49 = load i32, ptr %48, align 8, !tbaa !25
  %50 = load ptr, ptr %5, align 8, !tbaa !19
  %51 = getelementptr inbounds nuw %struct.Gia_ManSwi_t_, ptr %50, i32 0, i32 0
  %52 = load ptr, ptr %51, align 8, !tbaa !21
  %53 = call i32 @Gia_ManCoNum(ptr noundef %52)
  %54 = mul nsw i32 %49, %53
  %55 = sext i32 %54 to i64
  %56 = mul i64 4, %55
  %57 = call noalias ptr @malloc(i64 noundef %56) #12
  %58 = load ptr, ptr %5, align 8, !tbaa !19
  %59 = getelementptr inbounds nuw %struct.Gia_ManSwi_t_, ptr %58, i32 0, i32 5
  store ptr %57, ptr %59, align 8, !tbaa !47
  %60 = load ptr, ptr %3, align 8, !tbaa !17
  %61 = call i32 @Gia_ManObjNum(ptr noundef %60)
  %62 = sext i32 %61 to i64
  %63 = call noalias ptr @calloc(i64 noundef %62, i64 noundef 4) #13
  %64 = load ptr, ptr %5, align 8, !tbaa !19
  %65 = getelementptr inbounds nuw %struct.Gia_ManSwi_t_, ptr %64, i32 0, i32 6
  store ptr %63, ptr %65, align 8, !tbaa !48
  %66 = load ptr, ptr %5, align 8, !tbaa !19
  call void @llvm.lifetime.end.p0(i64 8, ptr %5) #11
  ret ptr %66
}