; Function Attrs: nounwind uwtable
define noalias noundef ptr @Gia_ManSwiCreate(ptr noundef %0, ptr noundef %1) local_unnamed_addr #2 {
  %calloc = tail call dereferenceable_or_null(56) ptr @calloc(i64 1, i64 56)
  %3 = tail call ptr @Gia_ManFront(ptr noundef %0) #17
  store ptr %3, ptr %calloc, align 8, !tbaa !14
  %4 = getelementptr inbounds nuw i8, ptr %calloc, i64 8
  store ptr %1, ptr %4, align 8, !tbaa !20
  %5 = load i32, ptr %1, align 4, !tbaa !3
  %6 = getelementptr inbounds nuw i8, ptr %calloc, i64 16
  store i32 %5, ptr %6, align 8, !tbaa !21
  %7 = getelementptr inbounds nuw i8, ptr %3, i64 180
  %8 = load i32, ptr %7, align 4, !tbaa !22
  %9 = mul nsw i32 %8, %5
  %10 = sext i32 %9 to i64
  %11 = shl nsw i64 %10, 2
  %12 = tail call noalias ptr @malloc(i64 noundef %11) #18
  %13 = getelementptr inbounds nuw i8, ptr %calloc, i64 24
  store ptr %12, ptr %13, align 8, !tbaa !41
  %14 = getelementptr i8, ptr %3, i64 64
  %.val = load ptr, ptr %14, align 8, !tbaa !42
  %15 = getelementptr i8, ptr %.val, i64 4
  %.val.val = load i32, ptr %15, align 4, !tbaa !43
  %16 = mul nsw i32 %.val.val, %5
  %17 = sext i32 %16 to i64
  %18 = shl nsw i64 %17, 2
  %19 = tail call noalias ptr @malloc(i64 noundef %18) #18
  %20 = getelementptr inbounds nuw i8, ptr %calloc, i64 32
  store ptr %19, ptr %20, align 8, !tbaa !44
  %21 = getelementptr i8, ptr %3, i64 72
  %.val19 = load ptr, ptr %21, align 8, !tbaa !45
  %22 = getelementptr i8, ptr %.val19, i64 4
  %.val19.val = load i32, ptr %22, align 4, !tbaa !43
  %23 = mul nsw i32 %.val19.val, %5
  %24 = sext i32 %23 to i64
  %25 = shl nsw i64 %24, 2
  %26 = tail call noalias ptr @malloc(i64 noundef %25) #18
  %27 = getelementptr inbounds nuw i8, ptr %calloc, i64 40
  store ptr %26, ptr %27, align 8, !tbaa !46
  %28 = getelementptr i8, ptr %0, i64 24
  %.val20 = load i32, ptr %28, align 8, !tbaa !47
  %29 = sext i32 %.val20 to i64
  %30 = tail call noalias ptr @calloc(i64 noundef %29, i64 noundef 4) #19
  %31 = getelementptr inbounds nuw i8, ptr %calloc, i64 48
  store ptr %30, ptr %31, align 8, !tbaa !48
  ret ptr %calloc
}